target datalayout = "e-m:e-p270:32:32-p271:32:32-p272:64:64-i64:64-i128:128-f80:128-n8:16:32:64-S128"
target triple = "x86_64-pc-linux-gnu"

%struct.cl_engine = type { i32, i32, i32, [2 x i32], i32, i32, i32, ptr, i32, i64, i32, i32, i64, i64, i32, i32, i32, i32, ptr, ptr, ptr, ptr, ptr, ptr, ptr, ptr, ptr, ptr, ptr, ptr, ptr, ptr, ptr, ptr, ptr, ptr, ptr, i64, ptr, %struct.crtmgr, ptr, ptr, ptr, ptr, ptr, ptr, ptr, ptr, ptr, ptr, ptr, ptr, ptr, ptr, ptr, ptr, ptr, %struct.cli_all_bc, [7 x ptr], [7 x i32], i32, i32, i32, i32, i64, i64, i64, i64, i64, ptr, ptr, ptr, ptr, ptr, ptr, ptr, ptr, ptr, i32, i32, i32, i64, i64, i64, ptr }
%struct.crtmgr = type { ptr, i32 }
%struct.cli_all_bc = type { ptr, i32, ptr, %struct.cli_environment, i32 }
%struct.cli_environment = type { i32, i32, i32, i32, i32, i32, i32, [65 x i8], [65 x i8], [65 x i8], [65 x i8], [65 x i8], [65 x i8], [65 x i8], i8, i8, i8, i8, i8, i8, i8, i8, i8 }
%struct.phishcheck = type { %struct.regex_t, i32 }
%struct.regex_t = type { i32, i64, ptr, ptr }

@.str.13 = private unnamed_addr constant [24 x i8] c"Cleaning up phishcheck\0A\00", align 1
@.str.14 = private unnamed_addr constant [27 x i8] c"Freeing phishcheck struct\0A\00", align 1
@.str.15 = private unnamed_addr constant [23 x i8] c"Phishcheck cleaned up\0A\00", align 1

; Function Attrs: nounwind uwtable
define internal void @free_regex(ptr noundef %0) #0 {
  %2 = alloca ptr, align 8
  store ptr %0, ptr %2, align 8
  %3 = load ptr, ptr %2, align 8
  %4 = icmp ne ptr %3, null
  br i1 %4, label %5, label %7

5:                                                ; preds = %1
  %6 = load ptr, ptr %2, align 8
  call void @cli_regfree(ptr noundef %6)
  br label %7

7:                                                ; preds = %5, %1
  ret void
}

; Function Attrs: nounwind uwtable
define void @phishing_done(ptr noundef %0) #0 {
  %2 = alloca ptr, align 8
  %3 = alloca ptr, align 8
  store ptr %0, ptr %2, align 8
  %4 = load ptr, ptr %2, align 8
  %5 = getelementptr inbounds %struct.cl_engine, ptr %4, i32 0, i32 26
  %6 = load ptr, ptr %5, align 8
  store ptr %6, ptr %3, align 8
  call void (ptr, ...) @cli_dbgmsg(ptr noundef @.str.13)
  %7 = load ptr, ptr %3, align 8
  %8 = icmp ne ptr %7, null
  br i1 %8, label %9, label %17

9:                                                ; preds = %1
  %10 = load ptr, ptr %3, align 8
  %11 = getelementptr inbounds %struct.phishcheck, ptr %10, i32 0, i32 1
  %12 = load i32, ptr %11, align 8
  %13 = icmp ne i32 %12, 0
  br i1 %13, label %17, label %14

14:                                               ; preds = %9
  %15 = load ptr, ptr %3, align 8
  %16 = getelementptr inbounds %struct.phishcheck, ptr %15, i32 0, i32 0
  call void @free_regex(ptr noundef %16)
  br label %17

17:                                               ; preds = %14, %9, %1
  %18 = load ptr, ptr %2, align 8
  call void @allow_list_done(ptr noundef %18)
  %19 = load ptr, ptr %2, align 8
  call void @domain_list_done(ptr noundef %19)
  %20 = load ptr, ptr %3, align 8
  %21 = icmp ne ptr %20, null
  br i1 %21, label %22, label %27

22:                                               ; preds = %17
  call void (ptr, ...) @cli_dbgmsg(ptr noundef @.str.14)
  %23 = load ptr, ptr %2, align 8
  %24 = getelementptr inbounds %struct.cl_engine, ptr %23, i32 0, i32 38
  %25 = load ptr, ptr %24, align 8
  %26 = load ptr, ptr %3, align 8
  call void @mpool_free(ptr noundef %25, ptr noundef %26)
  br label %27

27:                                               ; preds = %22, %17
  call void (ptr, ...) @cli_dbgmsg(ptr noundef @.str.15)
  ret void
}