; Function Attrs: nounwind uwtable
define void @phishing_done(ptr noundef %0) local_unnamed_addr #0 {
  %2 = getelementptr inbounds i8, ptr %0, i64 160
  %3 = load ptr, ptr %2, align 8
  tail call void (ptr, ...) @cli_dbgmsg(ptr noundef nonnull @.str.13) #18
  %.not = icmp eq ptr %3, null
  br i1 %.not, label %.critedge, label %4

4:                                                ; preds = %1
  %5 = getelementptr inbounds i8, ptr %3, i64 32
  %6 = load i32, ptr %5, align 8
  %.not9 = icmp eq i32 %6, 0
  br i1 %.not9, label %7, label %8

7:                                                ; preds = %4
  tail call void @cli_regfree(ptr noundef nonnull %3) #18
  br label %8

8:                                                ; preds = %4, %7
  tail call void @allow_list_done(ptr noundef nonnull %0) #18
  tail call void @domain_list_done(ptr noundef nonnull %0) #18
  tail call void (ptr, ...) @cli_dbgmsg(ptr noundef nonnull @.str.14) #18
  %9 = getelementptr inbounds i8, ptr %0, i64 256
  %10 = load ptr, ptr %9, align 8
  tail call void @mpool_free(ptr noundef %10, ptr noundef nonnull %3) #18
  br label %11

.critedge:                                        ; preds = %1
  tail call void @allow_list_done(ptr noundef nonnull %0) #18
  tail call void @domain_list_done(ptr noundef nonnull %0) #18
  br label %11

11:                                               ; preds = %.critedge, %8
  tail call void (ptr, ...) @cli_dbgmsg(ptr noundef nonnull @.str.15) #18
  ret void
}